; Function Attrs: nounwind sspstrong uwtable
define internal void @virtio_pci_notify_write(ptr noundef readonly captures(none) %0, i64 noundef %1, i64 noundef %2, i32 noundef %3) #0 {
  %5 = alloca %struct.timeval, align 8
  %6 = getelementptr i8, ptr %0, i64 34160
  %.val = load ptr, ptr %6, align 8
  %.not.i = icmp eq ptr %.val, null
  br i1 %.not.i, label %virtio_bus_get_device.exit, label %7

7:                                                ; preds = %4
  %8 = getelementptr inbounds nuw i8, ptr %.val, i64 16
  %9 = load ptr, ptr %8, align 8
  br label %virtio_bus_get_device.exit

virtio_bus_get_device.exit:                       ; preds = %4, %7
  %10 = phi ptr [ %9, %7 ], [ null, %4 ]
  %11 = getelementptr i8, ptr %0, i64 5348
  %.val12 = load i32, ptr %11, align 4
  %12 = and i32 %.val12, 32
  %.not.i13 = icmp eq i32 %12, 0
  %13 = select i1 %.not.i13, i64 2, i64 12
  %14 = lshr i64 %1, %13
  %15 = trunc i64 %14 to i32
  %16 = icmp ne ptr %10, null
  %17 = icmp ult i32 %15, 1024
  %or.cond = and i1 %16, %17
  br i1 %or.cond, label %18, label %35

18:                                               ; preds = %virtio_bus_get_device.exit
  %19 = load i32, ptr @trace_events_enabled_count, align 4
  %.not.i.i = icmp eq i32 %19, 0
  br i1 %.not.i.i, label %trace_virtio_pci_notify_write.exit, label %20, !prof !19

20:                                               ; preds = %18
  %21 = load i16, ptr @_TRACE_VIRTIO_PCI_NOTIFY_WRITE_DSTATE, align 2
  %.not6.i.i = icmp eq i16 %21, 0
  br i1 %.not6.i.i, label %trace_virtio_pci_notify_write.exit, label %22

22:                                               ; preds = %20
  %23 = load i32, ptr @qemu_loglevel, align 4
  %24 = and i32 %23, 32768
  %.not7.i.i = icmp eq i32 %24, 0
  br i1 %.not7.i.i, label %trace_virtio_pci_notify_write.exit, label %25

25:                                               ; preds = %22
  %26 = load i8, ptr @message_with_timestamp, align 1, !range !7, !noundef !6
  %27 = trunc nuw i8 %26 to i1
  br i1 %27, label %28, label %34

28:                                               ; preds = %25
  call void @llvm.lifetime.start.p0(i64 16, ptr nonnull %5) #15
  call void @llvm.memset.p0.i64(ptr noundef nonnull align 8 dereferenceable(16) %5, i8 0, i64 16, i1 false), !annotation !16
  %29 = call i32 @gettimeofday(ptr noundef nonnull %5, ptr noundef null) #15
  %30 = tail call i32 @qemu_get_thread_id() #15
  %31 = load i64, ptr %5, align 8
  %32 = getelementptr inbounds nuw i8, ptr %5, i64 8
  %33 = load i64, ptr %32, align 8
  tail call void (ptr, ...) @qemu_log(ptr noundef nonnull @.str.60, i32 noundef %30, i64 noundef %31, i64 noundef %33, i64 noundef %1, i64 noundef %2, i32 noundef %3) #15
  call void @llvm.lifetime.end.p0(i64 16, ptr nonnull %5) #15
  br label %trace_virtio_pci_notify_write.exit

34:                                               ; preds = %25
  tail call void (ptr, ...) @qemu_log(ptr noundef nonnull @.str.61, i64 noundef %1, i64 noundef %2, i32 noundef %3) #15
  br label %trace_virtio_pci_notify_write.exit

trace_virtio_pci_notify_write.exit:               ; preds = %18, %20, %22, %28, %34
  tail call void @virtio_queue_notify(ptr noundef nonnull %10, i32 noundef %15) #15
  br label %35

35:                                               ; preds = %trace_virtio_pci_notify_write.exit, %virtio_bus_get_device.exit
  ret void
}